; ModuleID = '29/13.c'
source_filename = "29/13.c"
target datalayout = "e-m:e-p270:32:32-p271:32:32-p272:64:64-i64:64-f80:128-n8:16:32:64-S128"
target triple = "x86_64-pc-linux-gnu"

@.str = private unnamed_addr constant [3 x i8] c"%d\00", align 1
@.str.1 = private unnamed_addr constant [7 x i8] c"%.3lf\0A\00", align 1

; Function Attrs: noinline nounwind uwtable
define dso_local i32 @main() #0 {
  %1 = alloca i32, align 4
  %2 = alloca i32, align 4
  %3 = alloca i32, align 4
  %4 = alloca i32, align 4
  %5 = alloca i32, align 4
  %6 = alloca i32, align 4
  %7 = alloca i32, align 4
  %8 = alloca i32, align 4
  %9 = alloca i32, align 4
  %10 = alloca double, align 8
  %11 = alloca double, align 8
  store i32 0, i32* %1, align 4
  store i32 1, i32* %6, align 4
  store i32 1, i32* %7, align 4
  store i32 1, i32* %8, align 4
  store i32 1, i32* %9, align 4
  store double 0.000000e+00, double* %11, align 8
  %12 = call i32 (i8*, ...) @__isoc99_scanf(i8* getelementptr inbounds ([3 x i8], [3 x i8]* @.str, i64 0, i64 0), i32* %2)
  store i32 0, i32* %3, align 4
  br label %13

13:                                               ; preds = %44, %0
  %14 = load i32, i32* %3, align 4
  %15 = load i32, i32* %2, align 4
  %16 = icmp slt i32 %14, %15
  br i1 %16, label %17, label %47

17:                                               ; preds = %13
  %18 = call i32 (i8*, ...) @__isoc99_scanf(i8* getelementptr inbounds ([3 x i8], [3 x i8]* @.str, i64 0, i64 0), i32* %4)
  store i32 0, i32* %5, align 4
  br label %19

19:                                               ; preds = %38, %17
  %20 = load i32, i32* %5, align 4
  %21 = load i32, i32* %4, align 4
  %22 = icmp slt i32 %20, %21
  br i1 %22, label %23, label %41

23:                                               ; preds = %19
  %24 = load i32, i32* %8, align 4
  %25 = load i32, i32* %9, align 4
  %26 = add nsw i32 %24, %25
  store i32 %26, i32* %6, align 4
  %27 = load i32, i32* %8, align 4
  store i32 %27, i32* %7, align 4
  %28 = load i32, i32* %6, align 4
  store i32 %28, i32* %8, align 4
  %29 = load i32, i32* %7, align 4
  store i32 %29, i32* %9, align 4
  %30 = load i32, i32* %6, align 4
  %31 = sitofp i32 %30 to double
  %32 = fmul double %31, 1.000000e+00
  %33 = load i32, i32* %7, align 4
  %34 = sitofp i32 %33 to double
  %35 = fdiv double %32, %34
  %36 = load double, double* %11, align 8
  %37 = fadd double %36, %35
  store double %37, double* %11, align 8
  br label %38

38:                                               ; preds = %23
  %39 = load i32, i32* %5, align 4
  %40 = add nsw i32 %39, 1
  store i32 %40, i32* %5, align 4
  br label %19

41:                                               ; preds = %19
  %42 = load double, double* %11, align 8
  %43 = call i32 (i8*, ...) @printf(i8* getelementptr inbounds ([7 x i8], [7 x i8]* @.str.1, i64 0, i64 0), double %42)
  store double 0.000000e+00, double* %11, align 8
  store i32 1, i32* %6, align 4
  store i32 1, i32* %7, align 4
  store i32 1, i32* %8, align 4
  store i32 1, i32* %9, align 4
  br label %44

44:                                               ; preds = %41
  %45 = load i32, i32* %3, align 4
  %46 = add nsw i32 %45, 1
  store i32 %46, i32* %3, align 4
  br label %13

47:                                               ; preds = %13
  ret i32 0
}

declare dso_local i32 @__isoc99_scanf(i8*, ...) #1

declare dso_local i32 @printf(i8*, ...) #1


!llvm.module.flags = !{!0}
!llvm.ident = !{!1}

!0 = !{i32 1, !"wchar_size", i32 4}
!1 = !{!"clang version 10.0.0-4ubuntu1 "}
